target datalayout = "e-m:e-p270:32:32-p271:32:32-p272:64:64-i64:64-i128:128-f80:128-n8:16:32:64-S128"
target triple = "x86_64-pc-linux-gnu"

@Truth6 = internal global [6 x i64] [i64 -6148914691236517206, i64 -3689348814741910324, i64 -1085102592571150096, i64 -71777214294589696, i64 -281470681808896, i64 -4294967296], align 16

; Function Attrs: inlinehint nounwind uwtable
define internal i64 @If_Dec6SwapAdjacent(i64 noundef %0, i32 noundef %1) #3 {
  %3 = alloca i64, align 8
  %4 = alloca i32, align 4
  store i64 %0, ptr %3, align 8, !tbaa !3
  store i32 %1, ptr %4, align 4, !tbaa !7
  %5 = load i64, ptr %3, align 8, !tbaa !3
  %6 = load i32, ptr %4, align 4, !tbaa !7
  %7 = sext i32 %6 to i64
  %8 = getelementptr inbounds [5 x [3 x i64]], ptr @PMasks, i64 0, i64 %7
  %9 = getelementptr inbounds [3 x i64], ptr %8, i64 0, i64 0
  %10 = load i64, ptr %9, align 8, !tbaa !3
  %11 = and i64 %5, %10
  %12 = load i64, ptr %3, align 8, !tbaa !3
  %13 = load i32, ptr %4, align 4, !tbaa !7
  %14 = sext i32 %13 to i64
  %15 = getelementptr inbounds [5 x [3 x i64]], ptr @PMasks, i64 0, i64 %14
  %16 = getelementptr inbounds [3 x i64], ptr %15, i64 0, i64 1
  %17 = load i64, ptr %16, align 8, !tbaa !3
  %18 = and i64 %12, %17
  %19 = load i32, ptr %4, align 4, !tbaa !7
  %20 = shl i32 1, %19
  %21 = zext i32 %20 to i64
  %22 = shl i64 %18, %21
  %23 = or i64 %11, %22
  %24 = load i64, ptr %3, align 8, !tbaa !3
  %25 = load i32, ptr %4, align 4, !tbaa !7
  %26 = sext i32 %25 to i64
  %27 = getelementptr inbounds [5 x [3 x i64]], ptr @PMasks, i64 0, i64 %26
  %28 = getelementptr inbounds [3 x i64], ptr %27, i64 0, i64 2
  %29 = load i64, ptr %28, align 8, !tbaa !3
  %30 = and i64 %24, %29
  %31 = load i32, ptr %4, align 4, !tbaa !7
  %32 = shl i32 1, %31
  %33 = zext i32 %32 to i64
  %34 = lshr i64 %30, %33
  %35 = or i64 %23, %34
  ret i64 %35
}

; Function Attrs: inlinehint nounwind uwtable
define internal i64 @If_Dec6TruthShrink(i64 noundef %0, i32 noundef %1, i32 noundef %2, i32 noundef %3) #3 {
  %5 = alloca i64, align 8
  %6 = alloca i32, align 4
  %7 = alloca i32, align 4
  %8 = alloca i32, align 4
  %9 = alloca i32, align 4
  %10 = alloca i32, align 4
  %11 = alloca i32, align 4
  store i64 %0, ptr %5, align 8, !tbaa !3
  store i32 %1, ptr %6, align 4, !tbaa !7
  store i32 %2, ptr %7, align 4, !tbaa !7
  store i32 %3, ptr %8, align 4, !tbaa !7
  call void @llvm.lifetime.start.p0(i64 4, ptr %9) #7
  call void @llvm.lifetime.start.p0(i64 4, ptr %10) #7
  call void @llvm.lifetime.start.p0(i64 4, ptr %11) #7
  store i32 0, ptr %11, align 4, !tbaa !7
  store i32 0, ptr %9, align 4, !tbaa !7
  br label %12

12:                                               ; preds = %40, %4
  %13 = load i32, ptr %9, align 4, !tbaa !7
  %14 = load i32, ptr %7, align 4, !tbaa !7
  %15 = icmp slt i32 %13, %14
  br i1 %15, label %16, label %43

16:                                               ; preds = %12
  %17 = load i32, ptr %8, align 4, !tbaa !7
  %18 = load i32, ptr %9, align 4, !tbaa !7
  %19 = shl i32 1, %18
  %20 = and i32 %17, %19
  %21 = icmp ne i32 %20, 0
  br i1 %21, label %22, label %39

22:                                               ; preds = %16
  %23 = load i32, ptr %9, align 4, !tbaa !7
  %24 = sub nsw i32 %23, 1
  store i32 %24, ptr %10, align 4, !tbaa !7
  br label %25

25:                                               ; preds = %33, %22
  %26 = load i32, ptr %10, align 4, !tbaa !7
  %27 = load i32, ptr %11, align 4, !tbaa !7
  %28 = icmp sge i32 %26, %27
  br i1 %28, label %29, label %36

29:                                               ; preds = %25
  %30 = load i64, ptr %5, align 8, !tbaa !3
  %31 = load i32, ptr %10, align 4, !tbaa !7
  %32 = call i64 @If_Dec6SwapAdjacent(i64 noundef %30, i32 noundef %31)
  store i64 %32, ptr %5, align 8, !tbaa !3
  br label %33

33:                                               ; preds = %29
  %34 = load i32, ptr %10, align 4, !tbaa !7
  %35 = add nsw i32 %34, -1
  store i32 %35, ptr %10, align 4, !tbaa !7
  br label %25, !llvm.loop !49

36:                                               ; preds = %25
  %37 = load i32, ptr %11, align 4, !tbaa !7
  %38 = add nsw i32 %37, 1
  store i32 %38, ptr %11, align 4, !tbaa !7
  br label %39

39:                                               ; preds = %36, %16
  br label %40

40:                                               ; preds = %39
  %41 = load i32, ptr %9, align 4, !tbaa !7
  %42 = add nsw i32 %41, 1
  store i32 %42, ptr %9, align 4, !tbaa !7
  br label %12, !llvm.loop !50

43:                                               ; preds = %12
  %44 = load i64, ptr %5, align 8, !tbaa !3
  call void @llvm.lifetime.end.p0(i64 4, ptr %11) #7
  call void @llvm.lifetime.end.p0(i64 4, ptr %10) #7
  call void @llvm.lifetime.end.p0(i64 4, ptr %9) #7
  ret i64 %44
}

; Function Attrs: inlinehint nounwind uwtable
define internal i32 @If_DecSuppIsMinBase(i32 noundef %0) #3 {
  %2 = alloca i32, align 4
  store i32 %0, ptr %2, align 4, !tbaa !7
  %3 = load i32, ptr %2, align 4, !tbaa !7
  %4 = load i32, ptr %2, align 4, !tbaa !7
  %5 = add nsw i32 %4, 1
  %6 = and i32 %3, %5
  %7 = icmp eq i32 %6, 0
  %8 = zext i1 %7 to i32
  ret i32 %8
}

; Function Attrs: inlinehint nounwind uwtable
define internal i32 @If_Dec6HasVar(i64 noundef %0, i32 noundef %1) #3 {
  %3 = alloca i64, align 8
  %4 = alloca i32, align 4
  store i64 %0, ptr %3, align 8, !tbaa !3
  store i32 %1, ptr %4, align 4, !tbaa !7
  %5 = load i64, ptr %3, align 8, !tbaa !3
  %6 = load i32, ptr %4, align 4, !tbaa !7
  %7 = sext i32 %6 to i64
  %8 = getelementptr inbounds [6 x i64], ptr @Truth6, i64 0, i64 %7
  %9 = load i64, ptr %8, align 8, !tbaa !3
  %10 = and i64 %5, %9
  %11 = load i32, ptr %4, align 4, !tbaa !7
  %12 = shl i32 1, %11
  %13 = zext i32 %12 to i64
  %14 = lshr i64 %10, %13
  %15 = load i64, ptr %3, align 8, !tbaa !3
  %16 = load i32, ptr %4, align 4, !tbaa !7
  %17 = sext i32 %16 to i64
  %18 = getelementptr inbounds [6 x i64], ptr @Truth6, i64 0, i64 %17
  %19 = load i64, ptr %18, align 8, !tbaa !3
  %20 = xor i64 %19, -1
  %21 = and i64 %15, %20
  %22 = icmp ne i64 %14, %21
  %23 = zext i1 %22 to i32
  ret i32 %23
}

; Function Attrs: nounwind uwtable
define i64 @If_Dec6MinimumBase(i64 noundef %0, ptr noundef %1, i32 noundef %2, ptr noundef %3) #0 {
  %5 = alloca i64, align 8
  %6 = alloca i64, align 8
  %7 = alloca ptr, align 8
  %8 = alloca i32, align 4
  %9 = alloca ptr, align 8
  %10 = alloca i32, align 4
  %11 = alloca i32, align 4
  %12 = alloca i32, align 4
  %13 = alloca i32, align 4
  store i64 %0, ptr %6, align 8, !tbaa !3
  store ptr %1, ptr %7, align 8, !tbaa !27
  store i32 %2, ptr %8, align 4, !tbaa !7
  store ptr %3, ptr %9, align 8, !tbaa !27
  call void @llvm.lifetime.start.p0(i64 4, ptr %10) #7
  call void @llvm.lifetime.start.p0(i64 4, ptr %11) #7
  store i32 0, ptr %11, align 4, !tbaa !7
  call void @llvm.lifetime.start.p0(i64 4, ptr %12) #7
  store i32 0, ptr %12, align 4, !tbaa !7
  store i32 0, ptr %10, align 4, !tbaa !7
  br label %14

14:                                               ; preds = %44, %4
  %15 = load i32, ptr %10, align 4, !tbaa !7
  %16 = load i32, ptr %8, align 4, !tbaa !7
  %17 = icmp slt i32 %15, %16
  br i1 %17, label %18, label %47

18:                                               ; preds = %14
  %19 = load i64, ptr %6, align 8, !tbaa !3
  %20 = load i32, ptr %10, align 4, !tbaa !7
  %21 = call i32 @If_Dec6HasVar(i64 noundef %19, i32 noundef %20)
  %22 = icmp ne i32 %21, 0
  br i1 %22, label %23, label %43

23:                                               ; preds = %18
  %24 = load i32, ptr %10, align 4, !tbaa !7
  %25 = shl i32 1, %24
  %26 = load i32, ptr %12, align 4, !tbaa !7
  %27 = or i32 %26, %25
  store i32 %27, ptr %12, align 4, !tbaa !7
  %28 = load ptr, ptr %7, align 8, !tbaa !27
  %29 = icmp ne ptr %28, null
  br i1 %29, label %30, label %40

30:                                               ; preds = %23
  %31 = load ptr, ptr %7, align 8, !tbaa !27
  %32 = load i32, ptr %10, align 4, !tbaa !7
  %33 = sext i32 %32 to i64
  %34 = getelementptr inbounds i32, ptr %31, i64 %33
  %35 = load i32, ptr %34, align 4, !tbaa !7
  %36 = load ptr, ptr %7, align 8, !tbaa !27
  %37 = load i32, ptr %11, align 4, !tbaa !7
  %38 = sext i32 %37 to i64
  %39 = getelementptr inbounds i32, ptr %36, i64 %38
  store i32 %35, ptr %39, align 4, !tbaa !7
  br label %40

40:                                               ; preds = %30, %23
  %41 = load i32, ptr %11, align 4, !tbaa !7
  %42 = add nsw i32 %41, 1
  store i32 %42, ptr %11, align 4, !tbaa !7
  br label %43

43:                                               ; preds = %40, %18
  br label %44

44:                                               ; preds = %43
  %45 = load i32, ptr %10, align 4, !tbaa !7
  %46 = add nsw i32 %45, 1
  store i32 %46, ptr %10, align 4, !tbaa !7
  br label %14, !llvm.loop !48

47:                                               ; preds = %14
  %48 = load ptr, ptr %9, align 8, !tbaa !27
  %49 = icmp ne ptr %48, null
  br i1 %49, label %50, label %53

50:                                               ; preds = %47
  %51 = load i32, ptr %11, align 4, !tbaa !7
  %52 = load ptr, ptr %9, align 8, !tbaa !27
  store i32 %51, ptr %52, align 4, !tbaa !7
  br label %53

53:                                               ; preds = %50, %47
  %54 = load i32, ptr %12, align 4, !tbaa !7
  %55 = call i32 @If_DecSuppIsMinBase(i32 noundef %54)
  %56 = icmp ne i32 %55, 0
  br i1 %56, label %57, label %59

57:                                               ; preds = %53
  %58 = load i64, ptr %6, align 8, !tbaa !3
  store i64 %58, ptr %5, align 8
  store i32 1, ptr %13, align 4
  br label %65

59:                                               ; preds = %53
  %60 = load i64, ptr %6, align 8, !tbaa !3
  %61 = load i32, ptr %11, align 4, !tbaa !7
  %62 = load i32, ptr %8, align 4, !tbaa !7
  %63 = load i32, ptr %12, align 4, !tbaa !7
  %64 = call i64 @If_Dec6TruthShrink(i64 noundef %60, i32 noundef %61, i32 noundef %62, i32 noundef %63)
  store i64 %64, ptr %5, align 8
  store i32 1, ptr %13, align 4
  br label %65

65:                                               ; preds = %59, %57
  call void @llvm.lifetime.end.p0(i64 4, ptr %12) #7
  call void @llvm.lifetime.end.p0(i64 4, ptr %11) #7
  call void @llvm.lifetime.end.p0(i64 4, ptr %10) #7
  %66 = load i64, ptr %5, align 8
  ret i64 %66
}