; Function Attrs: nofree norecurse nosync nounwind memory(argmem: readwrite) uwtable
define i64 @If_Dec6MinimumBase(i64 noundef %0, ptr noundef %1, i32 noundef %2, ptr noundef writeonly %3) local_unnamed_addr #6 {
  %5 = icmp sgt i32 %2, 0
  br i1 %5, label %.lr.ph, label %._crit_edge

.lr.ph:                                           ; preds = %4
  %.not31 = icmp eq ptr %1, null
  %wide.trip.count44 = zext nneg i32 %2 to i64
  br i1 %.not31, label %.lr.ph.split.us, label %.lr.ph.split

.lr.ph.split.us:                                  ; preds = %.lr.ph, %.lr.ph.split.us
  %indvars.iv41 = phi i64 [ %indvars.iv.next42, %.lr.ph.split.us ], [ 0, %.lr.ph ]
  %.036.us = phi i32 [ %.1.us, %.lr.ph.split.us ], [ 0, %.lr.ph ]
  %.02235.us = phi i32 [ %.123.us, %.lr.ph.split.us ], [ 0, %.lr.ph ]
  %6 = getelementptr inbounds nuw [6 x i64], ptr @s_Truths6, i64 0, i64 %indvars.iv41
  %7 = load i64, ptr %6, align 8, !tbaa !10
  %8 = and i64 %7, %0
  %9 = trunc nuw nsw i64 %indvars.iv41 to i32
  %10 = shl nuw i32 1, %9
  %11 = zext nneg i32 %10 to i64
  %12 = lshr i64 %8, %11
  %13 = xor i64 %7, -1
  %14 = and i64 %0, %13
  %.not32.us = icmp ne i64 %12, %14
  %15 = zext i1 %.not32.us to i32
  %.123.us = add nuw nsw i32 %.02235.us, %15
  %16 = select i1 %.not32.us, i32 %10, i32 0
  %.1.us = or i32 %.036.us, %16
  %indvars.iv.next42 = add nuw nsw i64 %indvars.iv41, 1
  %exitcond45.not = icmp eq i64 %indvars.iv.next42, %wide.trip.count44
  br i1 %exitcond45.not, label %._crit_edge, label %.lr.ph.split.us, !llvm.loop !43

.lr.ph.split:                                     ; preds = %.lr.ph, %33
  %indvars.iv = phi i64 [ %indvars.iv.next, %33 ], [ 0, %.lr.ph ]
  %.036 = phi i32 [ %.1, %33 ], [ 0, %.lr.ph ]
  %.02235 = phi i32 [ %.123, %33 ], [ 0, %.lr.ph ]
  %17 = getelementptr inbounds nuw [6 x i64], ptr @s_Truths6, i64 0, i64 %indvars.iv
  %18 = load i64, ptr %17, align 8, !tbaa !10
  %19 = and i64 %18, %0
  %20 = trunc nuw nsw i64 %indvars.iv to i32
  %21 = shl nuw i32 1, %20
  %22 = zext nneg i32 %21 to i64
  %23 = lshr i64 %19, %22
  %24 = xor i64 %18, -1
  %25 = and i64 %0, %24
  %.not32 = icmp eq i64 %23, %25
  br i1 %.not32, label %33, label %26

26:                                               ; preds = %.lr.ph.split
  %27 = or i32 %.036, %21
  %28 = getelementptr inbounds nuw i32, ptr %1, i64 %indvars.iv
  %29 = load i32, ptr %28, align 4, !tbaa !3
  %30 = sext i32 %.02235 to i64
  %31 = getelementptr inbounds i32, ptr %1, i64 %30
  store i32 %29, ptr %31, align 4, !tbaa !3
  %32 = add nsw i32 %.02235, 1
  br label %33

33:                                               ; preds = %.lr.ph.split, %26
  %.123 = phi i32 [ %32, %26 ], [ %.02235, %.lr.ph.split ]
  %.1 = phi i32 [ %27, %26 ], [ %.036, %.lr.ph.split ]
  %indvars.iv.next = add nuw nsw i64 %indvars.iv, 1
  %exitcond.not = icmp eq i64 %indvars.iv.next, %wide.trip.count44
  br i1 %exitcond.not, label %._crit_edge, label %.lr.ph.split, !llvm.loop !43

._crit_edge:                                      ; preds = %33, %.lr.ph.split.us, %4
  %.022.lcssa = phi i32 [ 0, %4 ], [ %.123.us, %.lr.ph.split.us ], [ %.123, %33 ]
  %.0.lcssa = phi i32 [ 0, %4 ], [ %.1.us, %.lr.ph.split.us ], [ %.1, %33 ]
  %.not = icmp eq ptr %3, null
  br i1 %.not, label %35, label %34

34:                                               ; preds = %._crit_edge
  store i32 %.022.lcssa, ptr %3, align 4, !tbaa !3
  br label %35

35:                                               ; preds = %34, %._crit_edge
  %36 = add nsw i32 %.0.lcssa, 1
  %37 = and i32 %36, %.0.lcssa
  %38 = icmp ne i32 %37, 0
  %or.cond = and i1 %5, %38
  br i1 %or.cond, label %.lr.ph26.preheader.i, label %If_Dec6TruthShrink.exit

.lr.ph26.preheader.i:                             ; preds = %35
  %wide.trip.count.i = zext nneg i32 %2 to i64
  br label %.lr.ph26.i

.lr.ph26.i:                                       ; preds = %59, %.lr.ph26.preheader.i
  %indvars.iv.i = phi i64 [ 0, %.lr.ph26.preheader.i ], [ %indvars.iv.next.i, %59 ]
  %.024.i = phi i32 [ 0, %.lr.ph26.preheader.i ], [ %.1.i, %59 ]
  %.01521.i = phi i64 [ %0, %.lr.ph26.preheader.i ], [ %.2.i, %59 ]
  %indvars32.i = trunc i64 %indvars.iv.i to i32
  %39 = shl nuw i32 1, %indvars32.i
  %40 = and i32 %39, %.0.lcssa
  %.not.i = icmp eq i32 %40, 0
  br i1 %.not.i, label %59, label %.preheader.i

.preheader.i:                                     ; preds = %.lr.ph26.i
  %.not17.not18.i = icmp slt i32 %.024.i, %indvars32.i
  br i1 %.not17.not18.i, label %.lr.ph.preheader.i, label %._crit_edge.i

.lr.ph.preheader.i:                               ; preds = %.preheader.i
  %41 = sext i32 %.024.i to i64
  br label %.lr.ph.i

.lr.ph.i:                                         ; preds = %.lr.ph.i, %.lr.ph.preheader.i
  %indvars.iv29.i = phi i64 [ %indvars.iv.i, %.lr.ph.preheader.i ], [ %indvars.iv.next30.i, %.lr.ph.i ]
  %.11619.i = phi i64 [ %.01521.i, %.lr.ph.preheader.i ], [ %57, %.lr.ph.i ]
  %indvars.iv.next30.i = add nsw i64 %indvars.iv29.i, -1
  %42 = getelementptr inbounds [5 x [3 x i64]], ptr @PMasks, i64 0, i64 %indvars.iv.next30.i
  %43 = load i64, ptr %42, align 8, !tbaa !10
  %44 = and i64 %43, %.11619.i
  %45 = getelementptr inbounds nuw i8, ptr %42, i64 8
  %46 = load i64, ptr %45, align 8, !tbaa !10
  %47 = and i64 %46, %.11619.i
  %48 = trunc nsw i64 %indvars.iv.next30.i to i32
  %49 = shl nuw i32 1, %48
  %50 = zext i32 %49 to i64
  %51 = shl i64 %47, %50
  %52 = or i64 %51, %44
  %53 = getelementptr inbounds nuw i8, ptr %42, i64 16
  %54 = load i64, ptr %53, align 8, !tbaa !10
  %55 = and i64 %54, %.11619.i
  %56 = lshr i64 %55, %50
  %57 = or i64 %52, %56
  %.not17.not.i = icmp sgt i64 %indvars.iv.next30.i, %41
  br i1 %.not17.not.i, label %.lr.ph.i, label %._crit_edge.i, !llvm.loop !44

._crit_edge.i:                                    ; preds = %.lr.ph.i, %.preheader.i
  %.116.lcssa.i = phi i64 [ %.01521.i, %.preheader.i ], [ %57, %.lr.ph.i ]
  %58 = add nsw i32 %.024.i, 1
  br label %59

59:                                               ; preds = %._crit_edge.i, %.lr.ph26.i
  %.2.i = phi i64 [ %.116.lcssa.i, %._crit_edge.i ], [ %.01521.i, %.lr.ph26.i ]
  %.1.i = phi i32 [ %58, %._crit_edge.i ], [ %.024.i, %.lr.ph26.i ]
  %indvars.iv.next.i = add nuw nsw i64 %indvars.iv.i, 1
  %exitcond.not.i = icmp eq i64 %indvars.iv.next.i, %wide.trip.count.i
  br i1 %exitcond.not.i, label %If_Dec6TruthShrink.exit, label %.lr.ph26.i, !llvm.loop !45

If_Dec6TruthShrink.exit:                          ; preds = %59, %35
  %.025 = phi i64 [ %0, %35 ], [ %.2.i, %59 ]
  ret i64 %.025
}